target datalayout = "e-m:e-p270:32:32-p271:32:32-p272:64:64-i64:64-i128:128-f80:128-n8:16:32:64-S128"
target triple = "x86_64-pc-linux-gnu"

%struct.AVPixFmtDescriptor = type { ptr, i8, i8, i8, i64, [4 x %struct.AVComponentDescriptor], ptr }
%struct.AVComponentDescriptor = type { i32, i32, i32, i32, i32 }

; Function Attrs: nounwind uwtable
define internal i32 @pix_fmt_match(i32 noundef %0, i32 noundef %1, i32 noundef %2, i32 noundef %3, i32 noundef %4) #1 {
  %6 = alloca i32, align 4
  %7 = alloca i32, align 4
  %8 = alloca i32, align 4
  %9 = alloca i32, align 4
  %10 = alloca i32, align 4
  %11 = alloca i32, align 4
  %12 = alloca i32, align 4
  %13 = alloca ptr, align 8
  %14 = alloca i32, align 4
  store i32 %0, ptr %7, align 4, !tbaa !48
  store i32 %1, ptr %8, align 4, !tbaa !48
  store i32 %2, ptr %9, align 4, !tbaa !48
  store i32 %3, ptr %10, align 4, !tbaa !48
  store i32 %4, ptr %11, align 4, !tbaa !48
  call void @llvm.lifetime.start.p0(i64 4, ptr %12) #12
  store i32 1, ptr %12, align 4, !tbaa !48
  call void @llvm.lifetime.start.p0(i64 8, ptr %13) #12
  %15 = load i32, ptr %7, align 4, !tbaa !48
  %16 = call ptr @av_pix_fmt_desc_get(i32 noundef %15)
  store ptr %16, ptr %13, align 8, !tbaa !170
  %17 = load ptr, ptr %13, align 8, !tbaa !170
  %18 = getelementptr inbounds nuw %struct.AVPixFmtDescriptor, ptr %17, i32 0, i32 1
  %19 = load i8, ptr %18, align 8, !tbaa !172
  %20 = zext i8 %19 to i32
  %21 = load i32, ptr %8, align 4, !tbaa !48
  %22 = icmp ne i32 %20, %21
  br i1 %22, label %23, label %24

23:                                               ; preds = %5
  store i32 0, ptr %6, align 4
  store i32 1, ptr %14, align 4
  br label %148

24:                                               ; preds = %5
  %25 = load i32, ptr %8, align 4, !tbaa !48
  switch i32 %25, label %146 [
    i32 4, label %26
    i32 3, label %50
    i32 2, label %82
    i32 1, label %114
  ]

26:                                               ; preds = %24
  %27 = load i32, ptr %12, align 4, !tbaa !48
  %28 = icmp ne i32 %27, 0
  br i1 %28, label %29, label %47

29:                                               ; preds = %26
  %30 = load ptr, ptr %13, align 8, !tbaa !170
  %31 = getelementptr inbounds nuw %struct.AVPixFmtDescriptor, ptr %30, i32 0, i32 5
  %32 = getelementptr inbounds [4 x %struct.AVComponentDescriptor], ptr %31, i64 0, i64 3
  %33 = getelementptr inbounds nuw %struct.AVComponentDescriptor, ptr %32, i32 0, i32 4
  %34 = load i32, ptr %33, align 4, !tbaa !174
  %35 = load i32, ptr %9, align 4, !tbaa !48
  %36 = icmp sge i32 %34, %35
  br i1 %36, label %37, label %47

37:                                               ; preds = %29
  %38 = load i32, ptr %10, align 4, !tbaa !48
  %39 = lshr i32 %38, 14
  %40 = and i32 %39, 3
  %41 = icmp eq i32 %40, 0
  br i1 %41, label %42, label %47

42:                                               ; preds = %37
  %43 = load i32, ptr %10, align 4, !tbaa !48
  %44 = lshr i32 %43, 12
  %45 = and i32 %44, 3
  %46 = icmp eq i32 %45, 0
  br label %47

47:                                               ; preds = %42, %37, %29, %26
  %48 = phi i1 [ false, %37 ], [ false, %29 ], [ false, %26 ], [ %46, %42 ]
  %49 = zext i1 %48 to i32
  store i32 %49, ptr %12, align 4, !tbaa !48
  br label %50

50:                                               ; preds = %24, %47
  %51 = load i32, ptr %12, align 4, !tbaa !48
  %52 = icmp ne i32 %51, 0
  br i1 %52, label %53, label %79

53:                                               ; preds = %50
  %54 = load ptr, ptr %13, align 8, !tbaa !170
  %55 = getelementptr inbounds nuw %struct.AVPixFmtDescriptor, ptr %54, i32 0, i32 5
  %56 = getelementptr inbounds [4 x %struct.AVComponentDescriptor], ptr %55, i64 0, i64 2
  %57 = getelementptr inbounds nuw %struct.AVComponentDescriptor, ptr %56, i32 0, i32 4
  %58 = load i32, ptr %57, align 8, !tbaa !174
  %59 = load i32, ptr %9, align 4, !tbaa !48
  %60 = icmp sge i32 %58, %59
  br i1 %60, label %61, label %79

61:                                               ; preds = %53
  %62 = load i32, ptr %10, align 4, !tbaa !48
  %63 = lshr i32 %62, 10
  %64 = and i32 %63, 3
  %65 = load ptr, ptr %13, align 8, !tbaa !170
  %66 = getelementptr inbounds nuw %struct.AVPixFmtDescriptor, ptr %65, i32 0, i32 2
  %67 = load i8, ptr %66, align 1, !tbaa !176
  %68 = zext i8 %67 to i32
  %69 = icmp eq i32 %64, %68
  br i1 %69, label %70, label %79

70:                                               ; preds = %61
  %71 = load i32, ptr %10, align 4, !tbaa !48
  %72 = lshr i32 %71, 8
  %73 = and i32 %72, 3
  %74 = load ptr, ptr %13, align 8, !tbaa !170
  %75 = getelementptr inbounds nuw %struct.AVPixFmtDescriptor, ptr %74, i32 0, i32 3
  %76 = load i8, ptr %75, align 2, !tbaa !177
  %77 = zext i8 %76 to i32
  %78 = icmp eq i32 %73, %77
  br label %79

79:                                               ; preds = %70, %61, %53, %50
  %80 = phi i1 [ false, %61 ], [ false, %53 ], [ false, %50 ], [ %78, %70 ]
  %81 = zext i1 %80 to i32
  store i32 %81, ptr %12, align 4, !tbaa !48
  br label %82

82:                                               ; preds = %24, %79
  %83 = load i32, ptr %12, align 4, !tbaa !48
  %84 = icmp ne i32 %83, 0
  br i1 %84, label %85, label %111

85:                                               ; preds = %82
  %86 = load ptr, ptr %13, align 8, !tbaa !170
  %87 = getelementptr inbounds nuw %struct.AVPixFmtDescriptor, ptr %86, i32 0, i32 5
  %88 = getelementptr inbounds [4 x %struct.AVComponentDescriptor], ptr %87, i64 0, i64 1
  %89 = getelementptr inbounds nuw %struct.AVComponentDescriptor, ptr %88, i32 0, i32 4
  %90 = load i32, ptr %89, align 4, !tbaa !174
  %91 = load i32, ptr %9, align 4, !tbaa !48
  %92 = icmp sge i32 %90, %91
  br i1 %92, label %93, label %111

93:                                               ; preds = %85
  %94 = load i32, ptr %10, align 4, !tbaa !48
  %95 = lshr i32 %94, 6
  %96 = and i32 %95, 3
  %97 = load ptr, ptr %13, align 8, !tbaa !170
  %98 = getelementptr inbounds nuw %struct.AVPixFmtDescriptor, ptr %97, i32 0, i32 2
  %99 = load i8, ptr %98, align 1, !tbaa !176
  %100 = zext i8 %99 to i32
  %101 = icmp eq i32 %96, %100
  br i1 %101, label %102, label %111

102:                                              ; preds = %93
  %103 = load i32, ptr %10, align 4, !tbaa !48
  %104 = lshr i32 %103, 4
  %105 = and i32 %104, 3
  %106 = load ptr, ptr %13, align 8, !tbaa !170
  %107 = getelementptr inbounds nuw %struct.AVPixFmtDescriptor, ptr %106, i32 0, i32 3
  %108 = load i8, ptr %107, align 2, !tbaa !177
  %109 = zext i8 %108 to i32
  %110 = icmp eq i32 %105, %109
  br label %111

111:                                              ; preds = %102, %93, %85, %82
  %112 = phi i1 [ false, %93 ], [ false, %85 ], [ false, %82 ], [ %110, %102 ]
  %113 = zext i1 %112 to i32
  store i32 %113, ptr %12, align 4, !tbaa !48
  br label %114

114:                                              ; preds = %24, %111
  %115 = load i32, ptr %12, align 4, !tbaa !48
  %116 = icmp ne i32 %115, 0
  br i1 %116, label %117, label %143

117:                                              ; preds = %114
  %118 = load ptr, ptr %13, align 8, !tbaa !170
  %119 = getelementptr inbounds nuw %struct.AVPixFmtDescriptor, ptr %118, i32 0, i32 5
  %120 = getelementptr inbounds [4 x %struct.AVComponentDescriptor], ptr %119, i64 0, i64 0
  %121 = getelementptr inbounds nuw %struct.AVComponentDescriptor, ptr %120, i32 0, i32 4
  %122 = load i32, ptr %121, align 8, !tbaa !174
  %123 = load i32, ptr %9, align 4, !tbaa !48
  %124 = icmp sge i32 %122, %123
  br i1 %124, label %125, label %143

125:                                              ; preds = %117
  %126 = load i32, ptr %10, align 4, !tbaa !48
  %127 = lshr i32 %126, 2
  %128 = and i32 %127, 3
  %129 = icmp eq i32 %128, 0
  br i1 %129, label %130, label %143

130:                                              ; preds = %125
  %131 = load i32, ptr %10, align 4, !tbaa !48
  %132 = and i32 %131, 3
  %133 = icmp eq i32 %132, 0
  br i1 %133, label %134, label %143

134:                                              ; preds = %130
  %135 = load ptr, ptr %13, align 8, !tbaa !170
  %136 = getelementptr inbounds nuw %struct.AVPixFmtDescriptor, ptr %135, i32 0, i32 4
  %137 = load i64, ptr %136, align 8, !tbaa !178
  %138 = and i64 %137, 2
  %139 = load i32, ptr %11, align 4, !tbaa !48
  %140 = mul nsw i32 %139, 2
  %141 = sext i32 %140 to i64
  %142 = icmp eq i64 %138, %141
  br label %143

143:                                              ; preds = %134, %130, %125, %117, %114
  %144 = phi i1 [ false, %130 ], [ false, %125 ], [ false, %117 ], [ false, %114 ], [ %142, %134 ]
  %145 = zext i1 %144 to i32
  store i32 %145, ptr %12, align 4, !tbaa !48
  br label %146

146:                                              ; preds = %143, %24
  %147 = load i32, ptr %12, align 4, !tbaa !48
  store i32 %147, ptr %6, align 4
  store i32 1, ptr %14, align 4
  br label %148

148:                                              ; preds = %146, %23
  call void @llvm.lifetime.end.p0(i64 8, ptr %13) #12
  call void @llvm.lifetime.end.p0(i64 4, ptr %12) #12
  %149 = load i32, ptr %6, align 4
  ret i32 %149
}