; Function Attrs: nounwind uwtable
define internal fastcc range(i32 0, 2) i32 @pix_fmt_match(i32 noundef %0, i32 noundef range(i32 1, 5) %1, i32 noundef %2, i32 noundef %3, i32 noundef range(i32 -128, 128) %4) unnamed_addr #1 {
  %6 = tail call ptr @av_pix_fmt_desc_get(i32 noundef %0) #11
  %7 = getelementptr inbounds nuw i8, ptr %6, i64 8
  %8 = load i8, ptr %7, align 8, !tbaa !210
  %9 = zext i8 %8 to i32
  %.not = icmp eq i32 %1, %9
  br i1 %.not, label %10, label %.critedge46

10:                                               ; preds = %5
  switch i32 %1, label %default.unreachable57 [
    i32 4, label %11
    i32 3, label %.critedge
    i32 2, label %.critedge43
    i32 1, label %.critedge45
  ]

11:                                               ; preds = %10
  %12 = getelementptr inbounds nuw i8, ptr %6, i64 100
  %13 = load i32, ptr %12, align 4, !tbaa !227
  %.not33 = icmp slt i32 %13, %2
  %14 = and i32 %3, 61440
  %15 = icmp ne i32 %14, 0
  %or.cond52 = or i1 %15, %.not33
  br i1 %or.cond52, label %.critedge46, label %.critedge

.critedge:                                        ; preds = %10, %11
  %16 = getelementptr inbounds nuw i8, ptr %6, i64 80
  %17 = load i32, ptr %16, align 8, !tbaa !227
  %.not35 = icmp slt i32 %17, %2
  br i1 %.not35, label %.critedge46, label %18

18:                                               ; preds = %.critedge
  %19 = lshr i32 %3, 10
  %20 = and i32 %19, 3
  %21 = getelementptr inbounds nuw i8, ptr %6, i64 9
  %22 = load i8, ptr %21, align 1, !tbaa !229
  %23 = zext i8 %22 to i32
  %24 = icmp eq i32 %20, %23
  br i1 %24, label %.critedge42, label %.critedge46

.critedge42:                                      ; preds = %18
  %25 = lshr i32 %3, 8
  %26 = and i32 %25, 3
  %27 = getelementptr inbounds nuw i8, ptr %6, i64 10
  %28 = load i8, ptr %27, align 2, !tbaa !230
  %29 = zext i8 %28 to i32
  %.not55 = icmp eq i32 %26, %29
  br i1 %.not55, label %.critedge43, label %.critedge46

.critedge43:                                      ; preds = %10, %.critedge42
  %30 = getelementptr inbounds nuw i8, ptr %6, i64 60
  %31 = load i32, ptr %30, align 4, !tbaa !227
  %.not37 = icmp slt i32 %31, %2
  br i1 %.not37, label %.critedge46, label %32

32:                                               ; preds = %.critedge43
  %33 = lshr i32 %3, 6
  %34 = and i32 %33, 3
  %35 = getelementptr inbounds nuw i8, ptr %6, i64 9
  %36 = load i8, ptr %35, align 1, !tbaa !229
  %37 = zext i8 %36 to i32
  %38 = icmp eq i32 %34, %37
  br i1 %38, label %.critedge44, label %.critedge46

.critedge44:                                      ; preds = %32
  %39 = lshr i32 %3, 4
  %40 = and i32 %39, 3
  %41 = getelementptr inbounds nuw i8, ptr %6, i64 10
  %42 = load i8, ptr %41, align 2, !tbaa !230
  %43 = zext i8 %42 to i32
  %.not56 = icmp eq i32 %40, %43
  br i1 %.not56, label %.critedge45, label %.critedge46

.critedge45:                                      ; preds = %10, %.critedge44
  %44 = getelementptr inbounds nuw i8, ptr %6, i64 40
  %45 = load i32, ptr %44, align 8, !tbaa !227
  %.not39 = icmp sge i32 %45, %2
  %46 = and i32 %3, 15
  %47 = icmp eq i32 %46, 0
  %or.cond50 = and i1 %47, %.not39
  br i1 %or.cond50, label %48, label %.critedge46

48:                                               ; preds = %.critedge45
  %49 = getelementptr inbounds nuw i8, ptr %6, i64 16
  %50 = load i64, ptr %49, align 8, !tbaa !208
  %51 = and i64 %50, 2
  %52 = shl nsw i32 %4, 1
  %53 = sext i32 %52 to i64
  %54 = icmp eq i64 %51, %53
  %55 = zext i1 %54 to i32
  br label %.critedge46

default.unreachable57:                            ; preds = %10
  unreachable

.critedge46:                                      ; preds = %32, %.critedge43, %.critedge42, %11, %.critedge, %18, %48, %.critedge45, %.critedge44, %5
  %.0 = phi i32 [ 0, %5 ], [ 0, %.critedge45 ], [ 0, %.critedge44 ], [ %55, %48 ], [ 0, %18 ], [ 0, %.critedge ], [ 0, %11 ], [ 0, %.critedge42 ], [ 0, %.critedge43 ], [ 0, %32 ]
  ret i32 %.0
}